target datalayout = "e-m:e-p270:32:32-p271:32:32-p272:64:64-i64:64-i128:128-f80:128-n8:16:32:64-S128"
target triple = "x86_64-pc-linux-gnu"

%struct._object = type { %union.anon, ptr }
%union.anon = type { i64 }

@_Py_NoneStruct = external global %struct._object, align 8
@PyExc_RuntimeError = external global ptr, align 8
@.str.20 = private unnamed_addr constant [32 x i8] c"PyMem_RawMalloc(0) returns NULL\00", align 1
@.str.21 = private unnamed_addr constant [35 x i8] c"PyMem_RawCalloc(0, 0) returns NULL\00", align 1
@.str.22 = private unnamed_addr constant [29 x i8] c"PyMem_Malloc(0) returns NULL\00", align 1
@.str.23 = private unnamed_addr constant [32 x i8] c"PyMem_Calloc(0, 0) returns NULL\00", align 1
@.str.24 = private unnamed_addr constant [32 x i8] c"PyObject_Malloc(0) returns NULL\00", align 1
@.str.25 = private unnamed_addr constant [35 x i8] c"PyObject_Calloc(0, 0) returns NULL\00", align 1

; Function Attrs: nounwind uwtable
define internal ptr @test_pymem_alloc0(ptr noundef %0, ptr noundef %1) #0 {
  %3 = alloca ptr, align 8
  %4 = alloca ptr, align 8
  %5 = alloca ptr, align 8
  %6 = alloca ptr, align 8
  %7 = alloca i32, align 4
  store ptr %0, ptr %4, align 8, !tbaa !3
  store ptr %1, ptr %5, align 8, !tbaa !3
  call void @llvm.lifetime.start.p0(i64 8, ptr %6) #6
  %8 = call ptr @PyMem_RawMalloc(i64 noundef 0)
  store ptr %8, ptr %6, align 8, !tbaa !18
  %9 = load ptr, ptr %6, align 8, !tbaa !18
  %10 = icmp eq ptr %9, null
  br i1 %10, label %11, label %13

11:                                               ; preds = %2
  %12 = load ptr, ptr @PyExc_RuntimeError, align 8, !tbaa !3
  call void @PyErr_SetString(ptr noundef %12, ptr noundef @.str.20)
  store ptr null, ptr %3, align 8
  store i32 1, ptr %7, align 4
  br label %50

13:                                               ; preds = %2
  %14 = load ptr, ptr %6, align 8, !tbaa !18
  call void @PyMem_RawFree(ptr noundef %14)
  %15 = call ptr @PyMem_RawCalloc(i64 noundef 0, i64 noundef 0)
  store ptr %15, ptr %6, align 8, !tbaa !18
  %16 = load ptr, ptr %6, align 8, !tbaa !18
  %17 = icmp eq ptr %16, null
  br i1 %17, label %18, label %20

18:                                               ; preds = %13
  %19 = load ptr, ptr @PyExc_RuntimeError, align 8, !tbaa !3
  call void @PyErr_SetString(ptr noundef %19, ptr noundef @.str.21)
  store ptr null, ptr %3, align 8
  store i32 1, ptr %7, align 4
  br label %50

20:                                               ; preds = %13
  %21 = load ptr, ptr %6, align 8, !tbaa !18
  call void @PyMem_RawFree(ptr noundef %21)
  %22 = call ptr @PyMem_Malloc(i64 noundef 0)
  store ptr %22, ptr %6, align 8, !tbaa !18
  %23 = load ptr, ptr %6, align 8, !tbaa !18
  %24 = icmp eq ptr %23, null
  br i1 %24, label %25, label %27

25:                                               ; preds = %20
  %26 = load ptr, ptr @PyExc_RuntimeError, align 8, !tbaa !3
  call void @PyErr_SetString(ptr noundef %26, ptr noundef @.str.22)
  store ptr null, ptr %3, align 8
  store i32 1, ptr %7, align 4
  br label %50

27:                                               ; preds = %20
  %28 = load ptr, ptr %6, align 8, !tbaa !18
  call void @PyMem_Free(ptr noundef %28)
  %29 = call ptr @PyMem_Calloc(i64 noundef 0, i64 noundef 0)
  store ptr %29, ptr %6, align 8, !tbaa !18
  %30 = load ptr, ptr %6, align 8, !tbaa !18
  %31 = icmp eq ptr %30, null
  br i1 %31, label %32, label %34

32:                                               ; preds = %27
  %33 = load ptr, ptr @PyExc_RuntimeError, align 8, !tbaa !3
  call void @PyErr_SetString(ptr noundef %33, ptr noundef @.str.23)
  store ptr null, ptr %3, align 8
  store i32 1, ptr %7, align 4
  br label %50

34:                                               ; preds = %27
  %35 = load ptr, ptr %6, align 8, !tbaa !18
  call void @PyMem_Free(ptr noundef %35)
  %36 = call ptr @PyObject_Malloc(i64 noundef 0)
  store ptr %36, ptr %6, align 8, !tbaa !18
  %37 = load ptr, ptr %6, align 8, !tbaa !18
  %38 = icmp eq ptr %37, null
  br i1 %38, label %39, label %41

39:                                               ; preds = %34
  %40 = load ptr, ptr @PyExc_RuntimeError, align 8, !tbaa !3
  call void @PyErr_SetString(ptr noundef %40, ptr noundef @.str.24)
  store ptr null, ptr %3, align 8
  store i32 1, ptr %7, align 4
  br label %50

41:                                               ; preds = %34
  %42 = load ptr, ptr %6, align 8, !tbaa !18
  call void @PyObject_Free(ptr noundef %42)
  %43 = call ptr @PyObject_Calloc(i64 noundef 0, i64 noundef 0)
  store ptr %43, ptr %6, align 8, !tbaa !18
  %44 = load ptr, ptr %6, align 8, !tbaa !18
  %45 = icmp eq ptr %44, null
  br i1 %45, label %46, label %48

46:                                               ; preds = %41
  %47 = load ptr, ptr @PyExc_RuntimeError, align 8, !tbaa !3
  call void @PyErr_SetString(ptr noundef %47, ptr noundef @.str.25)
  store ptr null, ptr %3, align 8
  store i32 1, ptr %7, align 4
  br label %50

48:                                               ; preds = %41
  %49 = load ptr, ptr %6, align 8, !tbaa !18
  call void @PyObject_Free(ptr noundef %49)
  store ptr @_Py_NoneStruct, ptr %3, align 8
  store i32 1, ptr %7, align 4
  br label %50

50:                                               ; preds = %48, %46, %39, %32, %25, %18, %11
  call void @llvm.lifetime.end.p0(i64 8, ptr %6) #6
  %51 = load ptr, ptr %3, align 8
  ret ptr %51
}