; Function Attrs: nounwind uwtable
define internal noundef ptr @test_pymem_alloc0(ptr readnone captures(none) %0, ptr readnone captures(none) %1) #0 {
  %3 = tail call ptr @PyMem_RawMalloc(i64 noundef 0) #4
  %4 = icmp eq ptr %3, null
  br i1 %4, label %5, label %7

5:                                                ; preds = %2
  %6 = load ptr, ptr @PyExc_RuntimeError, align 8, !tbaa !20
  tail call void @PyErr_SetString(ptr noundef %6, ptr noundef nonnull @.str.20) #4
  br label %33

7:                                                ; preds = %2
  tail call void @PyMem_RawFree(ptr noundef nonnull %3) #4
  %8 = tail call ptr @PyMem_RawCalloc(i64 noundef 0, i64 noundef 0) #4
  %9 = icmp eq ptr %8, null
  br i1 %9, label %10, label %12

10:                                               ; preds = %7
  %11 = load ptr, ptr @PyExc_RuntimeError, align 8, !tbaa !20
  tail call void @PyErr_SetString(ptr noundef %11, ptr noundef nonnull @.str.21) #4
  br label %33

12:                                               ; preds = %7
  tail call void @PyMem_RawFree(ptr noundef nonnull %8) #4
  %13 = tail call ptr @PyMem_Malloc(i64 noundef 0) #4
  %14 = icmp eq ptr %13, null
  br i1 %14, label %15, label %17

15:                                               ; preds = %12
  %16 = load ptr, ptr @PyExc_RuntimeError, align 8, !tbaa !20
  tail call void @PyErr_SetString(ptr noundef %16, ptr noundef nonnull @.str.22) #4
  br label %33

17:                                               ; preds = %12
  tail call void @PyMem_Free(ptr noundef nonnull %13) #4
  %18 = tail call ptr @PyMem_Calloc(i64 noundef 0, i64 noundef 0) #4
  %19 = icmp eq ptr %18, null
  br i1 %19, label %20, label %22

20:                                               ; preds = %17
  %21 = load ptr, ptr @PyExc_RuntimeError, align 8, !tbaa !20
  tail call void @PyErr_SetString(ptr noundef %21, ptr noundef nonnull @.str.23) #4
  br label %33

22:                                               ; preds = %17
  tail call void @PyMem_Free(ptr noundef nonnull %18) #4
  %23 = tail call ptr @PyObject_Malloc(i64 noundef 0) #4
  %24 = icmp eq ptr %23, null
  br i1 %24, label %25, label %27

25:                                               ; preds = %22
  %26 = load ptr, ptr @PyExc_RuntimeError, align 8, !tbaa !20
  tail call void @PyErr_SetString(ptr noundef %26, ptr noundef nonnull @.str.24) #4
  br label %33

27:                                               ; preds = %22
  tail call void @PyObject_Free(ptr noundef nonnull %23) #4
  %28 = tail call ptr @PyObject_Calloc(i64 noundef 0, i64 noundef 0) #4
  %29 = icmp eq ptr %28, null
  br i1 %29, label %30, label %32

30:                                               ; preds = %27
  %31 = load ptr, ptr @PyExc_RuntimeError, align 8, !tbaa !20
  tail call void @PyErr_SetString(ptr noundef %31, ptr noundef nonnull @.str.25) #4
  br label %33

32:                                               ; preds = %27
  tail call void @PyObject_Free(ptr noundef nonnull %28) #4
  br label %33

33:                                               ; preds = %32, %30, %25, %20, %15, %10, %5
  %.0 = phi ptr [ null, %5 ], [ null, %10 ], [ null, %15 ], [ null, %20 ], [ null, %25 ], [ null, %30 ], [ @_Py_NoneStruct, %32 ]
  ret ptr %.0
}